target datalayout = "e-m:e-p270:32:32-p271:32:32-p272:64:64-i64:64-i128:128-f80:128-n8:16:32:64-S128"
target triple = "x86_64-unknown-linux-gnu"

%"struct.std::__detail::_Hash_node_base" = type { ptr }
%"struct.std::__detail::_Prime_rehash_policy" = type { float, i64 }
%"class.std::unordered_map.46" = type { %"class.std::_Hashtable.47" }
%"class.std::_Hashtable.47" = type { ptr, i64, %"struct.std::__detail::_Hash_node_base", i64, %"struct.std::__detail::_Prime_rehash_policy", ptr }
%"struct.facebook::hermes::tracing::TraceInterpreter::Call" = type { %"class.std::vector.175", %"class.std::unordered_map.46" }
%"class.std::vector.175" = type { %"struct.std::_Vector_base.176" }
%"struct.std::_Vector_base.176" = type { %"struct.std::_Vector_base<facebook::hermes::tracing::TraceInterpreter::Call::Piece, std::allocator<facebook::hermes::tracing::TraceInterpreter::Call::Piece>>::_Vector_impl" }
%"struct.std::_Vector_base<facebook::hermes::tracing::TraceInterpreter::Call::Piece, std::allocator<facebook::hermes::tracing::TraceInterpreter::Call::Piece>>::_Vector_impl" = type { %"struct.std::_Vector_base<facebook::hermes::tracing::TraceInterpreter::Call::Piece, std::allocator<facebook::hermes::tracing::TraceInterpreter::Call::Piece>>::_Vector_impl_data" }
%"struct.std::_Vector_base<facebook::hermes::tracing::TraceInterpreter::Call::Piece, std::allocator<facebook::hermes::tracing::TraceInterpreter::Call::Piece>>::_Vector_impl_data" = type { ptr, ptr, ptr }
%"struct.std::_Vector_base.171" = type { %"struct.std::_Vector_base<facebook::hermes::tracing::TraceInterpreter::Call, std::allocator<facebook::hermes::tracing::TraceInterpreter::Call>>::_Vector_impl" }
%"struct.std::_Vector_base<facebook::hermes::tracing::TraceInterpreter::Call, std::allocator<facebook::hermes::tracing::TraceInterpreter::Call>>::_Vector_impl" = type { %"struct.std::_Vector_base<facebook::hermes::tracing::TraceInterpreter::Call, std::allocator<facebook::hermes::tracing::TraceInterpreter::Call>>::_Vector_impl_data" }
%"struct.std::_Vector_base<facebook::hermes::tracing::TraceInterpreter::Call, std::allocator<facebook::hermes::tracing::TraceInterpreter::Call>>::_Vector_impl_data" = type { ptr, ptr, ptr }
%"class.facebook::jsi::Value" = type { i32, %"union.facebook::jsi::Value::Data" }
%"union.facebook::jsi::Value::Data" = type { double }
%class.anon = type { ptr, i64, ptr }
%"class.hermes::OptValue" = type <{ i64, i8, [7 x i8] }>

@_ZTISt9exception = external constant ptr
@.str.31 = private unnamed_addr constant [74 x i8] c"vector::_M_range_check: __n (which is %zu) >= this->size() (which is %zu)\00", align 1

; Function Attrs: mustprogress nounwind uwtable
define linkonce_odr hidden noundef i64 @_ZNKSt6vectorIN8facebook6hermes7tracing16TraceInterpreter4CallESaIS4_EE4sizeEv(ptr noundef nonnull align 8 dereferenceable(24) %this) #5 comdat align 2 {
entry:
  %this.addr = alloca ptr, align 8
  store ptr %this, ptr %this.addr, align 8
  %this1 = load ptr, ptr %this.addr, align 8
  %_M_impl = getelementptr inbounds %"struct.std::_Vector_base.171", ptr %this1, i32 0, i32 0
  %_M_finish = getelementptr inbounds %"struct.std::_Vector_base<facebook::hermes::tracing::TraceInterpreter::Call, std::allocator<facebook::hermes::tracing::TraceInterpreter::Call>>::_Vector_impl_data", ptr %_M_impl, i32 0, i32 1
  %0 = load ptr, ptr %_M_finish, align 8
  %_M_impl2 = getelementptr inbounds %"struct.std::_Vector_base.171", ptr %this1, i32 0, i32 0
  %_M_start = getelementptr inbounds %"struct.std::_Vector_base<facebook::hermes::tracing::TraceInterpreter::Call, std::allocator<facebook::hermes::tracing::TraceInterpreter::Call>>::_Vector_impl_data", ptr %_M_impl2, i32 0, i32 0
  %1 = load ptr, ptr %_M_start, align 8
  %sub.ptr.lhs.cast = ptrtoint ptr %0 to i64
  %sub.ptr.rhs.cast = ptrtoint ptr %1 to i64
  %sub.ptr.sub = sub i64 %sub.ptr.lhs.cast, %sub.ptr.rhs.cast
  %sub.ptr.div = sdiv exact i64 %sub.ptr.sub, 80
  ret i64 %sub.ptr.div
}

; Function Attrs: mustprogress nounwind uwtable
define linkonce_odr hidden noundef nonnull align 8 dereferenceable(80) ptr @_ZNKSt6vectorIN8facebook6hermes7tracing16TraceInterpreter4CallESaIS4_EEixEm(ptr noundef nonnull align 8 dereferenceable(24) %this, i64 noundef %__n) #5 comdat align 2 {
entry:
  %this.addr = alloca ptr, align 8
  %__n.addr = alloca i64, align 8
  store ptr %this, ptr %this.addr, align 8
  store i64 %__n, ptr %__n.addr, align 8
  %this1 = load ptr, ptr %this.addr, align 8
  %_M_impl = getelementptr inbounds %"struct.std::_Vector_base.171", ptr %this1, i32 0, i32 0
  %_M_start = getelementptr inbounds %"struct.std::_Vector_base<facebook::hermes::tracing::TraceInterpreter::Call, std::allocator<facebook::hermes::tracing::TraceInterpreter::Call>>::_Vector_impl_data", ptr %_M_impl, i32 0, i32 0
  %0 = load ptr, ptr %_M_start, align 8
  %1 = load i64, ptr %__n.addr, align 8
  %add.ptr = getelementptr inbounds %"struct.facebook::hermes::tracing::TraceInterpreter::Call", ptr %0, i64 %1
  ret ptr %add.ptr
}

; Function Attrs: mustprogress uwtable
define linkonce_odr hidden void @_ZNKSt6vectorIN8facebook6hermes7tracing16TraceInterpreter4CallESaIS4_EE14_M_range_checkEm(ptr noundef nonnull align 8 dereferenceable(24) %this, i64 noundef %__n) #4 comdat align 2 {
entry:
  %this.addr = alloca ptr, align 8
  %__n.addr = alloca i64, align 8
  store ptr %this, ptr %this.addr, align 8
  store i64 %__n, ptr %__n.addr, align 8
  %this1 = load ptr, ptr %this.addr, align 8
  %0 = load i64, ptr %__n.addr, align 8
  %call = call noundef i64 @_ZNKSt6vectorIN8facebook6hermes7tracing16TraceInterpreter4CallESaIS4_EE4sizeEv(ptr noundef nonnull align 8 dereferenceable(24) %this1) #3
  %cmp = icmp uge i64 %0, %call
  br i1 %cmp, label %if.then, label %if.end

if.then:                                          ; preds = %entry
  %1 = load i64, ptr %__n.addr, align 8
  %call2 = call noundef i64 @_ZNKSt6vectorIN8facebook6hermes7tracing16TraceInterpreter4CallESaIS4_EE4sizeEv(ptr noundef nonnull align 8 dereferenceable(24) %this1) #3
  call void (ptr, ...) @_ZSt24__throw_out_of_range_fmtPKcz(ptr noundef @.str.31, i64 noundef %1, i64 noundef %call2) #20
  unreachable

if.end:                                           ; preds = %entry
  ret void
}

; Function Attrs: mustprogress nounwind uwtable
define linkonce_odr hidden void @_ZN6hermes8OptValueImEC2EN4llvh8NoneTypeE(ptr noundef nonnull align 8 dereferenceable(9) %this, i32 noundef %0) unnamed_addr #5 comdat align 2 {
entry:
  %this.addr = alloca ptr, align 8
  %.addr = alloca i32, align 4
  store ptr %this, ptr %this.addr, align 8
  store i32 %0, ptr %.addr, align 4
  %this1 = load ptr, ptr %this.addr, align 8
  %value_ = getelementptr inbounds %"class.hermes::OptValue", ptr %this1, i32 0, i32 0
  store i64 0, ptr %value_, align 8
  %hasValue_ = getelementptr inbounds %"class.hermes::OptValue", ptr %this1, i32 0, i32 1
  store i8 0, ptr %hasValue_, align 8
  ret void
}

; Function Attrs: mustprogress uwtable
define linkonce_odr hidden noundef nonnull align 8 dereferenceable(80) ptr @_ZNKSt6vectorIN8facebook6hermes7tracing16TraceInterpreter4CallESaIS4_EE2atEm(ptr noundef nonnull align 8 dereferenceable(24) %this, i64 noundef %__n) #4 comdat align 2 {
entry:
  %this.addr = alloca ptr, align 8
  %__n.addr = alloca i64, align 8
  store ptr %this, ptr %this.addr, align 8
  store i64 %__n, ptr %__n.addr, align 8
  %this1 = load ptr, ptr %this.addr, align 8
  %0 = load i64, ptr %__n.addr, align 8
  call void @_ZNKSt6vectorIN8facebook6hermes7tracing16TraceInterpreter4CallESaIS4_EE14_M_range_checkEm(ptr noundef nonnull align 8 dereferenceable(24) %this1, i64 noundef %0)
  %1 = load i64, ptr %__n.addr, align 8
  %call = call noundef nonnull align 8 dereferenceable(80) ptr @_ZNKSt6vectorIN8facebook6hermes7tracing16TraceInterpreter4CallESaIS4_EEixEm(ptr noundef nonnull align 8 dereferenceable(24) %this1, i64 noundef %1) #3
  ret ptr %call
}

; Function Attrs: mustprogress uwtable
define internal void @"_ZZN8facebook6hermes7tracing16TraceInterpreter18createHostFunctionERKNS1_10SynthTrace24CreateHostFunctionRecordERKNS_3jsi10PropNameIDEEN3$_0clERNS7_7RuntimeERKNS7_5ValueEPSF_m"(ptr noalias sret(%"class.facebook::jsi::Value") align 8 %agg.result, ptr noundef nonnull align 8 dereferenceable(24) %this, ptr noundef nonnull align 8 dereferenceable(8) %0, ptr noundef nonnull align 8 dereferenceable(16) %thisVal, ptr noundef %args, i64 noundef %count) #4 align 2 personality ptr @__gxx_personality_v0 {
entry:
  %result.ptr = alloca ptr, align 8
  %this.addr = alloca ptr, align 8
  %.addr = alloca ptr, align 8
  %thisVal.addr = alloca ptr, align 8
  %args.addr = alloca ptr, align 8
  %count.addr = alloca i64, align 8
  %exn.slot = alloca ptr, align 8
  %ehselector.slot = alloca i32, align 4
  %e = alloca ptr, align 8
  %agg.tmp = alloca %"class.hermes::OptValue", align 8
  store ptr %agg.result, ptr %result.ptr, align 8
  store ptr %this, ptr %this.addr, align 8
  store ptr %0, ptr %.addr, align 8
  store ptr %thisVal, ptr %thisVal.addr, align 8
  store ptr %args, ptr %args.addr, align 8
  store i64 %count, ptr %count.addr, align 8
  %this1 = load ptr, ptr %this.addr, align 8
  %1 = getelementptr inbounds %class.anon, ptr %this1, i32 0, i32 0
  %2 = load ptr, ptr %1, align 8
  %3 = getelementptr inbounds %class.anon, ptr %this1, i32 0, i32 2
  %4 = load ptr, ptr %3, align 8
  %5 = getelementptr inbounds %class.anon, ptr %this1, i32 0, i32 1
  %6 = load i64, ptr %5, align 8
  %inc = add i64 %6, 1
  store i64 %inc, ptr %5, align 8
  %call = invoke noundef nonnull align 8 dereferenceable(80) ptr @_ZNKSt6vectorIN8facebook6hermes7tracing16TraceInterpreter4CallESaIS4_EE2atEm(ptr noundef nonnull align 8 dereferenceable(24) %4, i64 noundef %6)
          to label %invoke.cont unwind label %lpad

invoke.cont:                                      ; preds = %entry
  %7 = load ptr, ptr %thisVal.addr, align 8
  %8 = load ptr, ptr %args.addr, align 8
  %9 = load i64, ptr %count.addr, align 8
  invoke void @_ZN8facebook6hermes7tracing16TraceInterpreter12execFunctionERKNS2_4CallERKNS_3jsi5ValueEPS8_mPKNS6_10PropNameIDE(ptr sret(%"class.facebook::jsi::Value") align 8 %agg.result, ptr noundef nonnull align 8 dereferenceable(576) %2, ptr noundef nonnull align 8 dereferenceable(80) %call, ptr noundef nonnull align 8 dereferenceable(16) %7, ptr noundef %8, i64 noundef %9, ptr noundef null)
          to label %invoke.cont2 unwind label %lpad

invoke.cont2:                                     ; preds = %invoke.cont
  ret void

lpad:                                             ; preds = %invoke.cont, %entry
  %10 = landingpad { ptr, i32 }
          catch ptr @_ZTISt9exception
  %11 = extractvalue { ptr, i32 } %10, 0
  store ptr %11, ptr %exn.slot, align 8
  %12 = extractvalue { ptr, i32 } %10, 1
  store i32 %12, ptr %ehselector.slot, align 4
  br label %catch.dispatch

catch.dispatch:                                   ; preds = %lpad
  %sel = load i32, ptr %ehselector.slot, align 4
  %13 = call i32 @llvm.eh.typeid.for(ptr @_ZTISt9exception) #3
  %matches = icmp eq i32 %sel, %13
  br i1 %matches, label %catch, label %eh.resume

catch:                                            ; preds = %catch.dispatch
  %exn = load ptr, ptr %exn.slot, align 8
  %14 = call ptr @__cxa_begin_catch(ptr %exn) #3
  store ptr %14, ptr %e, align 8
  %15 = load ptr, ptr %e, align 8
  invoke void @_ZN6hermes8OptValueImEC2EN4llvh8NoneTypeE(ptr noundef nonnull align 8 dereferenceable(9) %agg.tmp, i32 noundef 1)
          to label %invoke.cont4 unwind label %lpad3

invoke.cont4:                                     ; preds = %catch
  %16 = getelementptr inbounds { i64, i8 }, ptr %agg.tmp, i32 0, i32 0
  %17 = load i64, ptr %16, align 8
  %18 = getelementptr inbounds { i64, i8 }, ptr %agg.tmp, i32 0, i32 1
  %19 = load i8, ptr %18, align 8
  invoke void @_ZN8facebook6hermes7tracing16TraceInterpreter16crashOnExceptionERKSt9exceptionN6hermes8OptValueImEE(ptr noundef nonnull align 8 dereferenceable(576) %2, ptr noundef nonnull align 8 dereferenceable(8) %15, i64 %17, i8 %19) #20
          to label %invoke.cont5 unwind label %lpad3

invoke.cont5:                                     ; preds = %invoke.cont4
  unreachable

lpad3:                                            ; preds = %invoke.cont4, %catch
  %20 = landingpad { ptr, i32 }
          cleanup
  %21 = extractvalue { ptr, i32 } %20, 0
  store ptr %21, ptr %exn.slot, align 8
  %22 = extractvalue { ptr, i32 } %20, 1
  store i32 %22, ptr %ehselector.slot, align 4
  invoke void @__cxa_end_catch()
          to label %invoke.cont6 unwind label %terminate.lpad

invoke.cont6:                                     ; preds = %lpad3
  br label %eh.resume

try.cont:                                         ; No predecessors!
  call void @llvm.trap()
  unreachable

eh.resume:                                        ; preds = %invoke.cont6, %catch.dispatch
  %exn7 = load ptr, ptr %exn.slot, align 8
  %sel8 = load i32, ptr %ehselector.slot, align 4
  %lpad.val = insertvalue { ptr, i32 } poison, ptr %exn7, 0
  %lpad.val9 = insertvalue { ptr, i32 } %lpad.val, i32 %sel8, 1
  resume { ptr, i32 } %lpad.val9

terminate.lpad:                                   ; preds = %lpad3
  %23 = landingpad { ptr, i32 }
          catch ptr null
  %24 = extractvalue { ptr, i32 } %23, 0
  call void @__clang_call_terminate(ptr %24) #21
  unreachable
}

; Function Attrs: mustprogress nounwind uwtable
define linkonce_odr noundef ptr @_ZNKSt9_Any_data9_M_accessEv(ptr noundef nonnull align 8 dereferenceable(16) %this) #5 comdat align 2 {
entry:
  %this.addr = alloca ptr, align 8
  store ptr %this, ptr %this.addr, align 8
  %this1 = load ptr, ptr %this.addr, align 8
  %arrayidx = getelementptr inbounds [16 x i8], ptr %this1, i64 0, i64 0
  ret ptr %arrayidx
}

; Function Attrs: mustprogress uwtable
define internal void @"_ZSt13__invoke_implIN8facebook3jsi5ValueERZNS0_6hermes7tracing16TraceInterpreter18createHostFunctionERKNS4_10SynthTrace24CreateHostFunctionRecordERKNS1_10PropNameIDEE3$_0JRNS1_7RuntimeERKS2_PSH_mEET_St14__invoke_otherOT0_DpOT1_"(ptr noalias sret(%"class.facebook::jsi::Value") align 8 %agg.result, ptr noundef nonnull align 8 dereferenceable(24) %__f, ptr noundef nonnull align 8 dereferenceable(8) %__args, ptr noundef nonnull align 8 dereferenceable(16) %__args1, ptr noundef nonnull align 8 dereferenceable(8) %__args3, ptr noundef nonnull align 8 dereferenceable(8) %__args5) #4 {
entry:
  %result.ptr = alloca ptr, align 8
  %__f.addr = alloca ptr, align 8
  %__args.addr = alloca ptr, align 8
  %__args.addr2 = alloca ptr, align 8
  %__args.addr4 = alloca ptr, align 8
  %__args.addr6 = alloca ptr, align 8
  store ptr %agg.result, ptr %result.ptr, align 8
  store ptr %__f, ptr %__f.addr, align 8
  store ptr %__args, ptr %__args.addr, align 8
  store ptr %__args1, ptr %__args.addr2, align 8
  store ptr %__args3, ptr %__args.addr4, align 8
  store ptr %__args5, ptr %__args.addr6, align 8
  %0 = load ptr, ptr %__f.addr, align 8
  %1 = load ptr, ptr %__args.addr, align 8
  %2 = load ptr, ptr %__args.addr2, align 8
  %3 = load ptr, ptr %__args.addr4, align 8
  %4 = load ptr, ptr %3, align 8
  %5 = load ptr, ptr %__args.addr6, align 8
  %6 = load i64, ptr %5, align 8
  call void @"_ZZN8facebook6hermes7tracing16TraceInterpreter18createHostFunctionERKNS1_10SynthTrace24CreateHostFunctionRecordERKNS_3jsi10PropNameIDEEN3$_0clERNS7_7RuntimeERKNS7_5ValueEPSF_m"(ptr sret(%"class.facebook::jsi::Value") align 8 %agg.result, ptr noundef nonnull align 8 dereferenceable(24) %0, ptr noundef nonnull align 8 dereferenceable(8) %1, ptr noundef nonnull align 8 dereferenceable(16) %2, ptr noundef %4, i64 noundef %6)
  ret void
}

; Function Attrs: mustprogress nounwind uwtable
define internal noundef nonnull align 8 dereferenceable(8) ptr @"_ZNKSt9_Any_data9_M_accessIPZN8facebook6hermes7tracing16TraceInterpreter18createHostFunctionERKNS3_10SynthTrace24CreateHostFunctionRecordERKNS1_3jsi10PropNameIDEE3$_0EERKT_v"(ptr noundef nonnull align 8 dereferenceable(16) %this) #5 align 2 {
entry:
  %this.addr = alloca ptr, align 8
  store ptr %this, ptr %this.addr, align 8
  %this1 = load ptr, ptr %this.addr, align 8
  %call = call noundef ptr @_ZNKSt9_Any_data9_M_accessEv(ptr noundef nonnull align 8 dereferenceable(16) %this1) #3
  ret ptr %call
}

; Function Attrs: mustprogress uwtable
define internal void @"_ZSt10__invoke_rIN8facebook3jsi5ValueERZNS0_6hermes7tracing16TraceInterpreter18createHostFunctionERKNS4_10SynthTrace24CreateHostFunctionRecordERKNS1_10PropNameIDEE3$_0JRNS1_7RuntimeERKS2_PSH_mEENSt9enable_ifIX16is_invocable_r_vIT_T0_DpT1_EESL_E4typeEOSM_DpOSN_"(ptr noalias sret(%"class.facebook::jsi::Value") align 8 %agg.result, ptr noundef nonnull align 8 dereferenceable(24) %__fn, ptr noundef nonnull align 8 dereferenceable(8) %__args, ptr noundef nonnull align 8 dereferenceable(16) %__args1, ptr noundef nonnull align 8 dereferenceable(8) %__args3, ptr noundef nonnull align 8 dereferenceable(8) %__args5) #4 {
entry:
  %result.ptr = alloca ptr, align 8
  %__fn.addr = alloca ptr, align 8
  %__args.addr = alloca ptr, align 8
  %__args.addr2 = alloca ptr, align 8
  %__args.addr4 = alloca ptr, align 8
  %__args.addr6 = alloca ptr, align 8
  store ptr %agg.result, ptr %result.ptr, align 8
  store ptr %__fn, ptr %__fn.addr, align 8
  store ptr %__args, ptr %__args.addr, align 8
  store ptr %__args1, ptr %__args.addr2, align 8
  store ptr %__args3, ptr %__args.addr4, align 8
  store ptr %__args5, ptr %__args.addr6, align 8
  %0 = load ptr, ptr %__fn.addr, align 8
  %1 = load ptr, ptr %__args.addr, align 8
  %2 = load ptr, ptr %__args.addr2, align 8
  %3 = load ptr, ptr %__args.addr4, align 8
  %4 = load ptr, ptr %__args.addr6, align 8
  call void @"_ZSt13__invoke_implIN8facebook3jsi5ValueERZNS0_6hermes7tracing16TraceInterpreter18createHostFunctionERKNS4_10SynthTrace24CreateHostFunctionRecordERKNS1_10PropNameIDEE3$_0JRNS1_7RuntimeERKS2_PSH_mEET_St14__invoke_otherOT0_DpOT1_"(ptr sret(%"class.facebook::jsi::Value") align 8 %agg.result, ptr noundef nonnull align 8 dereferenceable(24) %0, ptr noundef nonnull align 8 dereferenceable(8) %1, ptr noundef nonnull align 8 dereferenceable(16) %2, ptr noundef nonnull align 8 dereferenceable(8) %3, ptr noundef nonnull align 8 dereferenceable(8) %4)
  ret void
}

; Function Attrs: mustprogress nounwind uwtable
define internal noundef ptr @"_ZNSt14_Function_base13_Base_managerIZN8facebook6hermes7tracing16TraceInterpreter18createHostFunctionERKNS3_10SynthTrace24CreateHostFunctionRecordERKNS1_3jsi10PropNameIDEE3$_0E14_M_get_pointerERKSt9_Any_data"(ptr noundef nonnull align 8 dereferenceable(16) %__source) #5 align 2 {
entry:
  %__source.addr = alloca ptr, align 8
  store ptr %__source, ptr %__source.addr, align 8
  %0 = load ptr, ptr %__source.addr, align 8
  %call = call noundef nonnull align 8 dereferenceable(8) ptr @"_ZNKSt9_Any_data9_M_accessIPZN8facebook6hermes7tracing16TraceInterpreter18createHostFunctionERKNS3_10SynthTrace24CreateHostFunctionRecordERKNS1_3jsi10PropNameIDEE3$_0EERKT_v"(ptr noundef nonnull align 8 dereferenceable(16) %0) #3
  %1 = load ptr, ptr %call, align 8
  ret ptr %1
}

; Function Attrs: mustprogress uwtable
define internal void @"_ZNSt17_Function_handlerIFN8facebook3jsi5ValueERNS1_7RuntimeERKS2_PS5_mEZNS0_6hermes7tracing16TraceInterpreter18createHostFunctionERKNSA_10SynthTrace24CreateHostFunctionRecordERKNS1_10PropNameIDEE3$_0E9_M_invokeERKSt9_Any_dataS4_S6_OS7_Om"(ptr noalias sret(%"class.facebook::jsi::Value") align 8 %agg.result, ptr noundef nonnull align 8 dereferenceable(16) %__functor, ptr noundef nonnull align 8 dereferenceable(8) %__args, ptr noundef nonnull align 8 dereferenceable(16) %__args1, ptr noundef nonnull align 8 dereferenceable(8) %__args3, ptr noundef nonnull align 8 dereferenceable(8) %__args5) #4 align 2 {
entry:
  %result.ptr = alloca ptr, align 8
  %__functor.addr = alloca ptr, align 8
  %__args.addr = alloca ptr, align 8
  %__args.addr2 = alloca ptr, align 8
  %__args.addr4 = alloca ptr, align 8
  %__args.addr6 = alloca ptr, align 8
  store ptr %agg.result, ptr %result.ptr, align 8
  store ptr %__functor, ptr %__functor.addr, align 8
  store ptr %__args, ptr %__args.addr, align 8
  store ptr %__args1, ptr %__args.addr2, align 8
  store ptr %__args3, ptr %__args.addr4, align 8
  store ptr %__args5, ptr %__args.addr6, align 8
  %0 = load ptr, ptr %__functor.addr, align 8
  %call = call noundef ptr @"_ZNSt14_Function_base13_Base_managerIZN8facebook6hermes7tracing16TraceInterpreter18createHostFunctionERKNS3_10SynthTrace24CreateHostFunctionRecordERKNS1_3jsi10PropNameIDEE3$_0E14_M_get_pointerERKSt9_Any_data"(ptr noundef nonnull align 8 dereferenceable(16) %0) #3
  %1 = load ptr, ptr %__args.addr, align 8
  %2 = load ptr, ptr %__args.addr2, align 8
  %3 = load ptr, ptr %__args.addr4, align 8
  %4 = load ptr, ptr %__args.addr6, align 8
  call void @"_ZSt10__invoke_rIN8facebook3jsi5ValueERZNS0_6hermes7tracing16TraceInterpreter18createHostFunctionERKNS4_10SynthTrace24CreateHostFunctionRecordERKNS1_10PropNameIDEE3$_0JRNS1_7RuntimeERKS2_PSH_mEENSt9enable_ifIX16is_invocable_r_vIT_T0_DpT1_EESL_E4typeEOSM_DpOSN_"(ptr sret(%"class.facebook::jsi::Value") align 8 %agg.result, ptr noundef nonnull align 8 dereferenceable(24) %call, ptr noundef nonnull align 8 dereferenceable(8) %1, ptr noundef nonnull align 8 dereferenceable(16) %2, ptr noundef nonnull align 8 dereferenceable(8) %3, ptr noundef nonnull align 8 dereferenceable(8) %4)
  ret void
}