; Function Attrs: mustprogress uwtable
define internal void @"_ZNSt17_Function_handlerIFN8facebook3jsi5ValueERNS1_7RuntimeERKS2_PS5_mEZNS0_6hermes7tracing16TraceInterpreter18createHostFunctionERKNSA_10SynthTrace24CreateHostFunctionRecordERKNS1_10PropNameIDEE3$_0E9_M_invokeERKSt9_Any_dataS4_S6_OS7_Om"(ptr noalias sret(%"class.facebook::jsi::Value") align 8 %agg.result, ptr nocapture noundef nonnull readonly align 8 dereferenceable(16) %__functor, ptr nocapture nonnull readnone align 8 %__args, ptr noundef nonnull align 8 dereferenceable(16) %__args1, ptr nocapture noundef nonnull readonly align 8 dereferenceable(8) %__args3, ptr nocapture noundef nonnull readonly align 8 dereferenceable(8) %__args5) #3 align 2 personality ptr @__gxx_personality_v0 {
entry:
  %__functor.val = load ptr, ptr %__functor, align 8
  %__args3.val = load ptr, ptr %__args3, align 8
  %0 = load ptr, ptr %__functor.val, align 8, !noalias !403
  %1 = getelementptr inbounds i8, ptr %__functor.val, i64 16
  %2 = load ptr, ptr %1, align 8, !noalias !403
  %3 = getelementptr inbounds i8, ptr %__functor.val, i64 8
  %4 = load i64, ptr %3, align 8, !noalias !403
  %inc.i.i.i = add i64 %4, 1
  store i64 %inc.i.i.i, ptr %3, align 8, !noalias !403
  %_M_finish.i.i.i.i.i.i = getelementptr inbounds i8, ptr %2, i64 8
  %5 = load ptr, ptr %_M_finish.i.i.i.i.i.i, align 8, !noalias !403
  %6 = load ptr, ptr %2, align 8, !noalias !403
  %sub.ptr.lhs.cast.i.i.i.i.i.i = ptrtoint ptr %5 to i64
  %sub.ptr.rhs.cast.i.i.i.i.i.i = ptrtoint ptr %6 to i64
  %sub.ptr.sub.i.i.i.i.i.i = sub i64 %sub.ptr.lhs.cast.i.i.i.i.i.i, %sub.ptr.rhs.cast.i.i.i.i.i.i
  %sub.ptr.div.i.i.i.i.i.i = sdiv exact i64 %sub.ptr.sub.i.i.i.i.i.i, 80
  %cmp.not.i.i.i.i.i = icmp ugt i64 %sub.ptr.div.i.i.i.i.i.i, %4
  br i1 %cmp.not.i.i.i.i.i, label %invoke.cont.i.i.i, label %if.then.i.i.i.i.i

if.then.i.i.i.i.i:                                ; preds = %entry
  invoke void (ptr, ...) @_ZSt24__throw_out_of_range_fmtPKcz(ptr noundef nonnull @.str.31, i64 noundef %4, i64 noundef %sub.ptr.div.i.i.i.i.i.i) #33
          to label %.noexc.i.i.i unwind label %lpad.i.i.i, !noalias !403

.noexc.i.i.i:                                     ; preds = %if.then.i.i.i.i.i
  unreachable

invoke.cont.i.i.i:                                ; preds = %entry
  %add.ptr.i.i.i.i.i = getelementptr inbounds %"struct.facebook::hermes::tracing::TraceInterpreter::Call", ptr %6, i64 %4
  invoke void @_ZN8facebook6hermes7tracing16TraceInterpreter12execFunctionERKNS2_4CallERKNS_3jsi5ValueEPS8_mPKNS6_10PropNameIDE(ptr sret(%"class.facebook::jsi::Value") align 8 %agg.result, ptr noundef nonnull align 8 dereferenceable(576) %0, ptr noundef nonnull align 8 dereferenceable(80) %add.ptr.i.i.i.i.i, ptr noundef nonnull align 8 dereferenceable(16) %__args1, ptr noundef %__args3.val, i64 poison, ptr noundef null)
          to label %"_ZSt10__invoke_rIN8facebook3jsi5ValueERZNS0_6hermes7tracing16TraceInterpreter18createHostFunctionERKNS4_10SynthTrace24CreateHostFunctionRecordERKNS1_10PropNameIDEE3$_0JRNS1_7RuntimeERKS2_PSH_mEENSt9enable_ifIX16is_invocable_r_vIT_T0_DpT1_EESL_E4typeEOSM_DpOSN_.exit" unwind label %lpad.i.i.i

lpad.i.i.i:                                       ; preds = %invoke.cont.i.i.i, %if.then.i.i.i.i.i
  %7 = landingpad { ptr, i32 }
          catch ptr @_ZTISt9exception
  %8 = extractvalue { ptr, i32 } %7, 1
  %9 = tail call i32 @llvm.eh.typeid.for(ptr nonnull @_ZTISt9exception) #29
  %matches.i.i.i = icmp eq i32 %8, %9
  br i1 %matches.i.i.i, label %catch.i.i.i, label %eh.resume.i.i.i

catch.i.i.i:                                      ; preds = %lpad.i.i.i
  %10 = extractvalue { ptr, i32 } %7, 0
  %11 = tail call ptr @__cxa_begin_catch(ptr %10) #29
  invoke void @_ZN8facebook6hermes7tracing16TraceInterpreter16crashOnExceptionERKSt9exceptionN6hermes8OptValueImEE(ptr noundef nonnull align 8 dereferenceable(576) %0, ptr noundef nonnull align 8 dereferenceable(8) %11, i64 0, i8 0) #33
          to label %invoke.cont5.i.i.i unwind label %lpad3.i.i.i

invoke.cont5.i.i.i:                               ; preds = %catch.i.i.i
  unreachable

lpad3.i.i.i:                                      ; preds = %catch.i.i.i
  %12 = landingpad { ptr, i32 }
          cleanup
  invoke void @__cxa_end_catch()
          to label %eh.resume.i.i.i unwind label %terminate.lpad.i.i.i

eh.resume.i.i.i:                                  ; preds = %lpad3.i.i.i, %lpad.i.i.i
  %lpad.val9.merged.i.i.i = phi { ptr, i32 } [ %12, %lpad3.i.i.i ], [ %7, %lpad.i.i.i ]
  resume { ptr, i32 } %lpad.val9.merged.i.i.i

terminate.lpad.i.i.i:                             ; preds = %lpad3.i.i.i
  %13 = landingpad { ptr, i32 }
          catch ptr null
  %14 = extractvalue { ptr, i32 } %13, 0
  tail call void @__clang_call_terminate(ptr %14) #30
  unreachable

"_ZSt10__invoke_rIN8facebook3jsi5ValueERZNS0_6hermes7tracing16TraceInterpreter18createHostFunctionERKNS4_10SynthTrace24CreateHostFunctionRecordERKNS1_10PropNameIDEE3$_0JRNS1_7RuntimeERKS2_PSH_mEENSt9enable_ifIX16is_invocable_r_vIT_T0_DpT1_EESL_E4typeEOSM_DpOSN_.exit": ; preds = %invoke.cont.i.i.i
  ret void
}